target datalayout = "e-m:e-p270:32:32-p271:32:32-p272:64:64-i64:64-i128:128-f80:128-n8:16:32:64-S128"
target triple = "x86_64-pc-linux-gnu"

%struct.FunctionCallInfoBaseData = type { ptr, ptr, ptr, i32, i8, i16, [0 x %struct.NullableDatum] }
%struct.NullableDatum = type { i64, i8 }
%struct.pg_re_flags = type { i32, i8 }
%struct.regexp_matches_ctx = type { ptr, i32, i32, ptr, i32, ptr, ptr, ptr, ptr, i32 }
%struct.FmgrInfo = type { ptr, i32, i16, i8, i8, i8, ptr, ptr, ptr }
%struct.FuncCallContext = type { i64, i64, ptr, ptr, ptr, ptr }
%struct.ReturnSetInfo = type { i32, ptr, ptr, i32, i32, i32, ptr, ptr }

@CurrentMemoryContext = external global ptr, align 8

; Function Attrs: inlinehint nounwind uwtable
define internal i64 @PointerGetDatum(ptr noundef %0) #6 {
  %2 = alloca ptr, align 8
  store ptr %0, ptr %2, align 8
  %3 = load ptr, ptr %2, align 8
  %4 = ptrtoint ptr %3 to i64
  ret i64 %4
}

; Function Attrs: inlinehint nounwind uwtable
define internal ptr @MemoryContextSwitchTo(ptr noundef %0) #6 {
  %2 = alloca ptr, align 8
  %3 = alloca ptr, align 8
  store ptr %0, ptr %2, align 8
  call void @llvm.lifetime.start.p0(i64 8, ptr %3) #8
  %4 = load ptr, ptr @CurrentMemoryContext, align 8
  store ptr %4, ptr %3, align 8
  %5 = load ptr, ptr %2, align 8
  store ptr %5, ptr @CurrentMemoryContext, align 8
  %6 = load ptr, ptr %3, align 8
  call void @llvm.lifetime.end.p0(i64 8, ptr %3) #8
  ret ptr %6
}

; Function Attrs: inlinehint nounwind uwtable
define internal ptr @DatumGetPointer(i64 noundef %0) #6 {
  %2 = alloca i64, align 8
  store i64 %0, ptr %2, align 8
  %3 = load i64, ptr %2, align 8
  %4 = inttoptr i64 %3 to ptr
  ret ptr %4
}

; Function Attrs: nounwind uwtable
define dso_local i64 @regexp_matches(ptr noundef %0) #0 {
  %2 = alloca i64, align 8
  %3 = alloca ptr, align 8
  %4 = alloca ptr, align 8
  %5 = alloca ptr, align 8
  %6 = alloca ptr, align 8
  %7 = alloca ptr, align 8
  %8 = alloca %struct.pg_re_flags, align 4
  %9 = alloca ptr, align 8
  %10 = alloca ptr, align 8
  %11 = alloca ptr, align 8
  %12 = alloca i32, align 4
  %13 = alloca ptr, align 8
  store ptr %0, ptr %3, align 8
  call void @llvm.lifetime.start.p0(i64 8, ptr %4) #8
  call void @llvm.lifetime.start.p0(i64 8, ptr %5) #8
  %14 = load ptr, ptr %3, align 8
  %15 = getelementptr inbounds nuw %struct.FunctionCallInfoBaseData, ptr %14, i32 0, i32 0
  %16 = load ptr, ptr %15, align 8
  %17 = getelementptr inbounds nuw %struct.FmgrInfo, ptr %16, i32 0, i32 6
  %18 = load ptr, ptr %17, align 8
  %19 = icmp eq ptr %18, null
  br i1 %19, label %20, label %84

20:                                               ; preds = %1
  call void @llvm.lifetime.start.p0(i64 8, ptr %6) #8
  %21 = load ptr, ptr %3, align 8
  %22 = getelementptr inbounds nuw %struct.FunctionCallInfoBaseData, ptr %21, i32 0, i32 6
  %23 = getelementptr inbounds [0 x %struct.NullableDatum], ptr %22, i64 0, i64 1
  %24 = getelementptr inbounds nuw %struct.NullableDatum, ptr %23, i32 0, i32 0
  %25 = load i64, ptr %24, align 8
  %26 = call ptr @DatumGetPointer(i64 noundef %25)
  %27 = call ptr @pg_detoast_datum_packed(ptr noundef %26)
  store ptr %27, ptr %6, align 8
  call void @llvm.lifetime.start.p0(i64 8, ptr %7) #8
  %28 = load ptr, ptr %3, align 8
  %29 = getelementptr inbounds nuw %struct.FunctionCallInfoBaseData, ptr %28, i32 0, i32 5
  %30 = load i16, ptr %29, align 2
  %31 = sext i16 %30 to i32
  %32 = icmp sgt i32 %31, 2
  br i1 %32, label %33, label %41

33:                                               ; preds = %20
  %34 = load ptr, ptr %3, align 8
  %35 = getelementptr inbounds nuw %struct.FunctionCallInfoBaseData, ptr %34, i32 0, i32 6
  %36 = getelementptr inbounds [0 x %struct.NullableDatum], ptr %35, i64 0, i64 2
  %37 = getelementptr inbounds nuw %struct.NullableDatum, ptr %36, i32 0, i32 0
  %38 = load i64, ptr %37, align 8
  %39 = call ptr @DatumGetPointer(i64 noundef %38)
  %40 = call ptr @pg_detoast_datum_packed(ptr noundef %39)
  br label %42

41:                                               ; preds = %20
  br label %42

42:                                               ; preds = %41, %33
  %43 = phi ptr [ %40, %33 ], [ null, %41 ]
  store ptr %43, ptr %7, align 8
  call void @llvm.lifetime.start.p0(i64 8, ptr %8) #8
  call void @llvm.lifetime.start.p0(i64 8, ptr %9) #8
  %44 = load ptr, ptr %3, align 8
  %45 = call ptr @init_MultiFuncCall(ptr noundef %44)
  store ptr %45, ptr %4, align 8
  %46 = load ptr, ptr %4, align 8
  %47 = getelementptr inbounds nuw %struct.FuncCallContext, ptr %46, i32 0, i32 4
  %48 = load ptr, ptr %47, align 8
  %49 = call ptr @MemoryContextSwitchTo(ptr noundef %48)
  store ptr %49, ptr %9, align 8
  %50 = load ptr, ptr %7, align 8
  call void @parse_re_flags(ptr noundef %8, ptr noundef %50)
  %51 = load ptr, ptr %3, align 8
  %52 = getelementptr inbounds nuw %struct.FunctionCallInfoBaseData, ptr %51, i32 0, i32 6
  %53 = getelementptr inbounds [0 x %struct.NullableDatum], ptr %52, i64 0, i64 0
  %54 = getelementptr inbounds nuw %struct.NullableDatum, ptr %53, i32 0, i32 0
  %55 = load i64, ptr %54, align 8
  %56 = call ptr @DatumGetPointer(i64 noundef %55)
  %57 = call ptr @pg_detoast_datum_copy(ptr noundef %56)
  %58 = load ptr, ptr %6, align 8
  %59 = load ptr, ptr %3, align 8
  %60 = getelementptr inbounds nuw %struct.FunctionCallInfoBaseData, ptr %59, i32 0, i32 3
  %61 = load i32, ptr %60, align 8
  %62 = call ptr @setup_regexp_matches(ptr noundef %57, ptr noundef %58, ptr noundef %8, i32 noundef 0, i32 noundef %61, i1 noundef zeroext true, i1 noundef zeroext false, i1 noundef zeroext false)
  store ptr %62, ptr %5, align 8
  %63 = load ptr, ptr %5, align 8
  %64 = getelementptr inbounds nuw %struct.regexp_matches_ctx, ptr %63, i32 0, i32 2
  %65 = load i32, ptr %64, align 4
  %66 = sext i32 %65 to i64
  %67 = mul i64 8, %66
  %68 = call ptr @palloc(i64 noundef %67)
  %69 = load ptr, ptr %5, align 8
  %70 = getelementptr inbounds nuw %struct.regexp_matches_ctx, ptr %69, i32 0, i32 5
  store ptr %68, ptr %70, align 8
  %71 = load ptr, ptr %5, align 8
  %72 = getelementptr inbounds nuw %struct.regexp_matches_ctx, ptr %71, i32 0, i32 2
  %73 = load i32, ptr %72, align 4
  %74 = sext i32 %73 to i64
  %75 = mul i64 1, %74
  %76 = call ptr @palloc(i64 noundef %75)
  %77 = load ptr, ptr %5, align 8
  %78 = getelementptr inbounds nuw %struct.regexp_matches_ctx, ptr %77, i32 0, i32 6
  store ptr %76, ptr %78, align 8
  %79 = load ptr, ptr %9, align 8
  %80 = call ptr @MemoryContextSwitchTo(ptr noundef %79)
  %81 = load ptr, ptr %5, align 8
  %82 = load ptr, ptr %4, align 8
  %83 = getelementptr inbounds nuw %struct.FuncCallContext, ptr %82, i32 0, i32 2
  store ptr %81, ptr %83, align 8
  call void @llvm.lifetime.end.p0(i64 8, ptr %9) #8
  call void @llvm.lifetime.end.p0(i64 8, ptr %8) #8
  call void @llvm.lifetime.end.p0(i64 8, ptr %7) #8
  call void @llvm.lifetime.end.p0(i64 8, ptr %6) #8
  br label %84

84:                                               ; preds = %42, %1
  %85 = load ptr, ptr %3, align 8
  %86 = call ptr @per_MultiFuncCall(ptr noundef %85)
  store ptr %86, ptr %4, align 8
  %87 = load ptr, ptr %4, align 8
  %88 = getelementptr inbounds nuw %struct.FuncCallContext, ptr %87, i32 0, i32 2
  %89 = load ptr, ptr %88, align 8
  store ptr %89, ptr %5, align 8
  %90 = load ptr, ptr %5, align 8
  %91 = getelementptr inbounds nuw %struct.regexp_matches_ctx, ptr %90, i32 0, i32 4
  %92 = load i32, ptr %91, align 8
  %93 = load ptr, ptr %5, align 8
  %94 = getelementptr inbounds nuw %struct.regexp_matches_ctx, ptr %93, i32 0, i32 1
  %95 = load i32, ptr %94, align 8
  %96 = icmp slt i32 %92, %95
  br i1 %96, label %97, label %121

97:                                               ; preds = %84
  call void @llvm.lifetime.start.p0(i64 8, ptr %10) #8
  %98 = load ptr, ptr %5, align 8
  %99 = call ptr @build_regexp_match_result(ptr noundef %98)
  store ptr %99, ptr %10, align 8
  %100 = load ptr, ptr %5, align 8
  %101 = getelementptr inbounds nuw %struct.regexp_matches_ctx, ptr %100, i32 0, i32 4
  %102 = load i32, ptr %101, align 8
  %103 = add i32 %102, 1
  store i32 %103, ptr %101, align 8
  br label %104

104:                                              ; preds = %97
  call void @llvm.lifetime.start.p0(i64 8, ptr %11) #8
  %105 = load ptr, ptr %4, align 8
  %106 = getelementptr inbounds nuw %struct.FuncCallContext, ptr %105, i32 0, i32 0
  %107 = load i64, ptr %106, align 8
  %108 = add i64 %107, 1
  store i64 %108, ptr %106, align 8
  %109 = load ptr, ptr %3, align 8
  %110 = getelementptr inbounds nuw %struct.FunctionCallInfoBaseData, ptr %109, i32 0, i32 2
  %111 = load ptr, ptr %110, align 8
  store ptr %111, ptr %11, align 8
  %112 = load ptr, ptr %11, align 8
  %113 = getelementptr inbounds nuw %struct.ReturnSetInfo, ptr %112, i32 0, i32 5
  store i32 1, ptr %113, align 8
  %114 = load ptr, ptr %10, align 8
  %115 = call i64 @PointerGetDatum(ptr noundef %114)
  store i64 %115, ptr %2, align 8
  store i32 1, ptr %12, align 4
  call void @llvm.lifetime.end.p0(i64 8, ptr %11) #8
  br label %118

116:                                              ; No predecessors!
  br label %117

117:                                              ; preds = %116
  store i32 0, ptr %12, align 4
  br label %118

118:                                              ; preds = %117, %104
  call void @llvm.lifetime.end.p0(i64 8, ptr %10) #8
  %119 = load i32, ptr %12, align 4
  switch i32 %119, label %140 [
    i32 0, label %120
  ]

120:                                              ; preds = %118
  br label %121

121:                                              ; preds = %120, %84
  br label %122

122:                                              ; preds = %121
  call void @llvm.lifetime.start.p0(i64 8, ptr %13) #8
  %123 = load ptr, ptr %3, align 8
  %124 = load ptr, ptr %4, align 8
  call void @end_MultiFuncCall(ptr noundef %123, ptr noundef %124)
  %125 = load ptr, ptr %3, align 8
  %126 = getelementptr inbounds nuw %struct.FunctionCallInfoBaseData, ptr %125, i32 0, i32 2
  %127 = load ptr, ptr %126, align 8
  store ptr %127, ptr %13, align 8
  %128 = load ptr, ptr %13, align 8
  %129 = getelementptr inbounds nuw %struct.ReturnSetInfo, ptr %128, i32 0, i32 5
  store i32 2, ptr %129, align 8
  br label %130

130:                                              ; preds = %122
  %131 = load ptr, ptr %3, align 8
  %132 = getelementptr inbounds nuw %struct.FunctionCallInfoBaseData, ptr %131, i32 0, i32 4
  store i8 1, ptr %132, align 4
  store i64 0, ptr %2, align 8
  store i32 1, ptr %12, align 4
  br label %135

133:                                              ; No predecessors!
  br label %134

134:                                              ; preds = %133
  store i32 0, ptr %12, align 4
  br label %135

135:                                              ; preds = %134, %130
  call void @llvm.lifetime.end.p0(i64 8, ptr %13) #8
  %136 = load i32, ptr %12, align 4
  switch i32 %136, label %140 [
    i32 0, label %137
  ]

137:                                              ; preds = %135
  br label %138

138:                                              ; preds = %137
  br label %139

139:                                              ; preds = %138
  store i32 0, ptr %12, align 4
  br label %140

140:                                              ; preds = %139, %135, %118
  call void @llvm.lifetime.end.p0(i64 8, ptr %5) #8
  call void @llvm.lifetime.end.p0(i64 8, ptr %4) #8
  %141 = load i32, ptr %12, align 4
  switch i32 %141, label %144 [
    i32 0, label %142
    i32 1, label %142
  ]

142:                                              ; preds = %140, %140
  %143 = load i64, ptr %2, align 8
  ret i64 %143

144:                                              ; preds = %140
  unreachable
}