; Function Attrs: nounwind uwtable
define dso_local i64 @regexp_matches(ptr noundef %0) local_unnamed_addr #0 {
  %2 = alloca %struct.pg_re_flags, align 4
  %3 = load ptr, ptr %0, align 8
  %4 = getelementptr inbounds nuw i8, ptr %3, i64 24
  %5 = load ptr, ptr %4, align 8
  %6 = icmp eq ptr %5, null
  br i1 %6, label %7, label %45

7:                                                ; preds = %1
  %8 = getelementptr inbounds nuw i8, ptr %0, i64 32
  %9 = getelementptr inbounds nuw i8, ptr %0, i64 48
  %10 = load i64, ptr %9, align 8
  %11 = inttoptr i64 %10 to ptr
  %12 = tail call ptr @pg_detoast_datum_packed(ptr noundef %11) #9
  %13 = getelementptr inbounds nuw i8, ptr %0, i64 30
  %14 = load i16, ptr %13, align 2
  %15 = icmp sgt i16 %14, 2
  br i1 %15, label %16, label %21

16:                                               ; preds = %7
  %17 = getelementptr inbounds nuw i8, ptr %0, i64 64
  %18 = load i64, ptr %17, align 8
  %19 = inttoptr i64 %18 to ptr
  %20 = tail call ptr @pg_detoast_datum_packed(ptr noundef %19) #9
  br label %21

21:                                               ; preds = %7, %16
  %22 = phi ptr [ %20, %16 ], [ null, %7 ]
  call void @llvm.lifetime.start.p0(i64 8, ptr nonnull %2) #9
  %23 = tail call ptr @init_MultiFuncCall(ptr noundef nonnull %0) #9
  %24 = getelementptr inbounds nuw i8, ptr %23, i64 32
  %25 = load ptr, ptr %24, align 8
  %26 = load ptr, ptr @CurrentMemoryContext, align 8
  store ptr %25, ptr @CurrentMemoryContext, align 8
  call fastcc void @parse_re_flags(ptr noundef %2, ptr noundef %22)
  %27 = load i64, ptr %8, align 8
  %28 = inttoptr i64 %27 to ptr
  %29 = tail call ptr @pg_detoast_datum_copy(ptr noundef %28) #9
  %30 = getelementptr inbounds nuw i8, ptr %0, i64 24
  %31 = load i32, ptr %30, align 8
  %.val = load i32, ptr %2, align 4
  %32 = getelementptr inbounds nuw i8, ptr %2, i64 4
  %.val35 = load i8, ptr %32, align 4
  %33 = tail call fastcc ptr @setup_regexp_matches(ptr noundef %29, ptr noundef %12, i32 %.val, i8 %.val35, i32 noundef 0, i32 noundef %31, i1 noundef zeroext true, i1 noundef zeroext false, i1 noundef zeroext false)
  %34 = getelementptr inbounds nuw i8, ptr %33, i64 12
  %35 = load i32, ptr %34, align 4
  %36 = sext i32 %35 to i64
  %37 = shl nsw i64 %36, 3
  %38 = tail call ptr @palloc(i64 noundef %37) #9
  %39 = getelementptr inbounds nuw i8, ptr %33, i64 32
  store ptr %38, ptr %39, align 8
  %40 = load i32, ptr %34, align 4
  %41 = sext i32 %40 to i64
  %42 = tail call ptr @palloc(i64 noundef %41) #9
  %43 = getelementptr inbounds nuw i8, ptr %33, i64 40
  store ptr %42, ptr %43, align 8
  store ptr %26, ptr @CurrentMemoryContext, align 8
  %44 = getelementptr inbounds nuw i8, ptr %23, i64 16
  store ptr %33, ptr %44, align 8
  call void @llvm.lifetime.end.p0(i64 8, ptr nonnull %2) #9
  br label %45

45:                                               ; preds = %21, %1
  %46 = tail call ptr @per_MultiFuncCall(ptr noundef nonnull %0) #9
  %47 = getelementptr inbounds nuw i8, ptr %46, i64 16
  %48 = load ptr, ptr %47, align 8
  %49 = getelementptr inbounds nuw i8, ptr %48, i64 24
  %50 = load i32, ptr %49, align 8
  %51 = getelementptr inbounds nuw i8, ptr %48, i64 8
  %52 = load i32, ptr %51, align 8
  %53 = icmp slt i32 %50, %52
  br i1 %53, label %54, label %64

54:                                               ; preds = %45
  %55 = tail call fastcc ptr @build_regexp_match_result(ptr noundef nonnull %48)
  %56 = load i32, ptr %49, align 8
  %57 = add i32 %56, 1
  store i32 %57, ptr %49, align 8
  %58 = load i64, ptr %46, align 8
  %59 = add i64 %58, 1
  store i64 %59, ptr %46, align 8
  %60 = getelementptr inbounds nuw i8, ptr %0, i64 16
  %61 = load ptr, ptr %60, align 8
  %62 = getelementptr inbounds nuw i8, ptr %61, i64 32
  store i32 1, ptr %62, align 8
  %63 = ptrtoint ptr %55 to i64
  br label %69

64:                                               ; preds = %45
  tail call void @end_MultiFuncCall(ptr noundef nonnull %0, ptr noundef nonnull %46) #9
  %65 = getelementptr inbounds nuw i8, ptr %0, i64 16
  %66 = load ptr, ptr %65, align 8
  %67 = getelementptr inbounds nuw i8, ptr %66, i64 32
  store i32 2, ptr %67, align 8
  %68 = getelementptr inbounds nuw i8, ptr %0, i64 28
  store i8 1, ptr %68, align 4
  br label %69

69:                                               ; preds = %54, %64
  %.0 = phi i64 [ 0, %64 ], [ %63, %54 ]
  ret i64 %.0
}